; Function Attrs: nounwind uwtable
define void @dt_open_url(ptr noundef %0) local_unnamed_addr #0 {
  %2 = alloca ptr, align 8
  call void @llvm.lifetime.start.p0(i64 8, ptr nonnull %2) #18
  store ptr null, ptr %2, align 8, !tbaa !90
  %3 = load ptr, ptr getelementptr inbounds nuw (i8, ptr @darktable, i64 104), align 8, !tbaa !15
  %4 = load ptr, ptr %3, align 8, !tbaa !63
  %5 = getelementptr inbounds nuw i8, ptr %4, i64 200
  %6 = load ptr, ptr %5, align 8, !tbaa !64
  %7 = tail call i64 @gtk_window_get_type() #19
  %8 = tail call ptr @g_type_check_instance_cast(ptr noundef %6, i64 noundef %7) #18
  %9 = tail call i32 @gtk_get_current_event_time() #18
  %10 = call i32 @gtk_show_uri_on_window(ptr noundef %8, ptr noundef %0, i32 noundef %9, ptr noundef nonnull %2) #18
  %.not = icmp eq i32 %10, 0
  br i1 %.not, label %13, label %11

11:                                               ; preds = %1
  %12 = call ptr @dcgettext(ptr noundef null, ptr noundef nonnull @.str.16, i32 noundef 5) #18
  call void (ptr, ...) @dt_control_log(ptr noundef %12) #18
  br label %20

13:                                               ; preds = %1
  %14 = call ptr @dcgettext(ptr noundef null, ptr noundef nonnull @.str.17, i32 noundef 5) #18
  call void (ptr, ...) @dt_control_log(ptr noundef %14) #18
  %15 = load ptr, ptr %2, align 8, !tbaa !90
  %.not2 = icmp eq ptr %15, null
  br i1 %.not2, label %20, label %16

16:                                               ; preds = %13
  %17 = getelementptr inbounds nuw i8, ptr %15, i64 8
  %18 = load ptr, ptr %17, align 8, !tbaa !92
  call void (ptr, ...) @dt_print_ext(ptr noundef nonnull @.str.18, ptr noundef %18) #18
  %19 = load ptr, ptr %2, align 8, !tbaa !90
  call void @g_error_free(ptr noundef %19) #18
  br label %20

20:                                               ; preds = %13, %16, %11
  call void @llvm.lifetime.end.p0(i64 8, ptr nonnull %2) #18
  ret void
}